target datalayout = "e-m:e-p270:32:32-p271:32:32-p272:64:64-i64:64-i128:128-f80:128-n8:16:32:64-S128"
target triple = "x86_64-unknown-linux-gnu"

%"class.pugi::xml_node" = type { ptr }
%"struct.pugi::impl::(anonymous namespace)::xml_memory_page" = type { ptr, ptr, ptr, i64, i64 }
%"struct.pugi::xml_node_struct" = type { i64, ptr, ptr, ptr, ptr, ptr, ptr, ptr }
%"struct.pugi::impl::(anonymous namespace)::xml_document_struct" = type { %"struct.pugi::xml_node_struct", %"struct.pugi::impl::(anonymous namespace)::xml_allocator", ptr, ptr }
%"struct.pugi::impl::(anonymous namespace)::xml_allocator" = type { ptr, i64 }
%"class.pugi::xml_document" = type { %"class.pugi::xml_node", ptr, [192 x i8] }

; Function Attrs: mustprogress nounwind uwtable
define internal void @_ZN4pugi4impl12_GLOBAL__N_113xml_allocatorC2EPNS1_15xml_memory_pageE(ptr noundef nonnull align 8 dereferenceable(16) %this, ptr noundef %root) unnamed_addr #0 align 2 {
entry:
  %this.addr = alloca ptr, align 8
  %root.addr = alloca ptr, align 8
  store ptr %this, ptr %this.addr, align 8
  store ptr %root, ptr %root.addr, align 8
  %this1 = load ptr, ptr %this.addr, align 8
  %_root = getelementptr inbounds %"struct.pugi::impl::(anonymous namespace)::xml_allocator", ptr %this1, i32 0, i32 0
  %0 = load ptr, ptr %root.addr, align 8
  store ptr %0, ptr %_root, align 8
  %_busy_size = getelementptr inbounds %"struct.pugi::impl::(anonymous namespace)::xml_allocator", ptr %this1, i32 0, i32 1
  %1 = load ptr, ptr %root.addr, align 8
  %busy_size = getelementptr inbounds %"struct.pugi::impl::(anonymous namespace)::xml_memory_page", ptr %1, i32 0, i32 3
  %2 = load i64, ptr %busy_size, align 8
  store i64 %2, ptr %_busy_size, align 8
  ret void
}

; Function Attrs: mustprogress nounwind uwtable
define internal void @_ZN4pugi15xml_node_structC2EPNS_4impl12_GLOBAL__N_115xml_memory_pageENS_13xml_node_typeE(ptr noundef nonnull align 8 dereferenceable(64) %this, ptr noundef %page, i32 noundef %type) unnamed_addr #0 align 2 {
entry:
  %this.addr = alloca ptr, align 8
  %page.addr = alloca ptr, align 8
  %type.addr = alloca i32, align 4
  store ptr %this, ptr %this.addr, align 8
  store ptr %page, ptr %page.addr, align 8
  store i32 %type, ptr %type.addr, align 4
  %this1 = load ptr, ptr %this.addr, align 8
  %name = getelementptr inbounds %"struct.pugi::xml_node_struct", ptr %this1, i32 0, i32 1
  store ptr null, ptr %name, align 8
  %value = getelementptr inbounds %"struct.pugi::xml_node_struct", ptr %this1, i32 0, i32 2
  store ptr null, ptr %value, align 8
  %parent = getelementptr inbounds %"struct.pugi::xml_node_struct", ptr %this1, i32 0, i32 3
  store ptr null, ptr %parent, align 8
  %first_child = getelementptr inbounds %"struct.pugi::xml_node_struct", ptr %this1, i32 0, i32 4
  store ptr null, ptr %first_child, align 8
  %prev_sibling_c = getelementptr inbounds %"struct.pugi::xml_node_struct", ptr %this1, i32 0, i32 5
  store ptr null, ptr %prev_sibling_c, align 8
  %next_sibling = getelementptr inbounds %"struct.pugi::xml_node_struct", ptr %this1, i32 0, i32 6
  store ptr null, ptr %next_sibling, align 8
  %first_attribute = getelementptr inbounds %"struct.pugi::xml_node_struct", ptr %this1, i32 0, i32 7
  store ptr null, ptr %first_attribute, align 8
  %0 = load ptr, ptr %page.addr, align 8
  %sub.ptr.lhs.cast = ptrtoint ptr %this1 to i64
  %sub.ptr.rhs.cast = ptrtoint ptr %0 to i64
  %sub.ptr.sub = sub i64 %sub.ptr.lhs.cast, %sub.ptr.rhs.cast
  %shl = shl i64 %sub.ptr.sub, 8
  %1 = load i32, ptr %type.addr, align 4
  %conv = zext i32 %1 to i64
  %or = or i64 %shl, %conv
  %header = getelementptr inbounds %"struct.pugi::xml_node_struct", ptr %this1, i32 0, i32 0
  store i64 %or, ptr %header, align 8
  ret void
}

; Function Attrs: mustprogress uwtable
define internal void @_ZN4pugi4impl12_GLOBAL__N_119xml_document_structC2EPNS1_15xml_memory_pageE(ptr noundef nonnull align 8 dereferenceable(96) %this, ptr noundef %page) unnamed_addr #2 align 2 {
entry:
  %this.addr = alloca ptr, align 8
  %page.addr = alloca ptr, align 8
  store ptr %this, ptr %this.addr, align 8
  store ptr %page, ptr %page.addr, align 8
  %this1 = load ptr, ptr %this.addr, align 8
  %0 = load ptr, ptr %page.addr, align 8
  call void @_ZN4pugi15xml_node_structC2EPNS_4impl12_GLOBAL__N_115xml_memory_pageENS_13xml_node_typeE(ptr noundef nonnull align 8 dereferenceable(64) %this1, ptr noundef %0, i32 noundef 1)
  %1 = getelementptr inbounds i8, ptr %this1, i64 64
  %2 = load ptr, ptr %page.addr, align 8
  call void @_ZN4pugi4impl12_GLOBAL__N_113xml_allocatorC2EPNS1_15xml_memory_pageE(ptr noundef nonnull align 8 dereferenceable(16) %1, ptr noundef %2)
  %buffer = getelementptr inbounds %"struct.pugi::impl::(anonymous namespace)::xml_document_struct", ptr %this1, i32 0, i32 2
  store ptr null, ptr %buffer, align 8
  %extra_buffers = getelementptr inbounds %"struct.pugi::impl::(anonymous namespace)::xml_document_struct", ptr %this1, i32 0, i32 3
  store ptr null, ptr %extra_buffers, align 8
  ret void
}

; Function Attrs: mustprogress nounwind uwtable
define internal noundef ptr @_ZN4pugi4impl12_GLOBAL__N_115xml_memory_page9constructEPv(ptr noundef %memory) #0 align 2 {
entry:
  %memory.addr = alloca ptr, align 8
  %result = alloca ptr, align 8
  store ptr %memory, ptr %memory.addr, align 8
  %0 = load ptr, ptr %memory.addr, align 8
  store ptr %0, ptr %result, align 8
  %1 = load ptr, ptr %result, align 8
  %allocator = getelementptr inbounds %"struct.pugi::impl::(anonymous namespace)::xml_memory_page", ptr %1, i32 0, i32 0
  store ptr null, ptr %allocator, align 8
  %2 = load ptr, ptr %result, align 8
  %prev = getelementptr inbounds %"struct.pugi::impl::(anonymous namespace)::xml_memory_page", ptr %2, i32 0, i32 1
  store ptr null, ptr %prev, align 8
  %3 = load ptr, ptr %result, align 8
  %next = getelementptr inbounds %"struct.pugi::impl::(anonymous namespace)::xml_memory_page", ptr %3, i32 0, i32 2
  store ptr null, ptr %next, align 8
  %4 = load ptr, ptr %result, align 8
  %busy_size = getelementptr inbounds %"struct.pugi::impl::(anonymous namespace)::xml_memory_page", ptr %4, i32 0, i32 3
  store i64 0, ptr %busy_size, align 8
  %5 = load ptr, ptr %result, align 8
  %freed_size = getelementptr inbounds %"struct.pugi::impl::(anonymous namespace)::xml_memory_page", ptr %5, i32 0, i32 4
  store i64 0, ptr %freed_size, align 8
  %6 = load ptr, ptr %result, align 8
  ret ptr %6
}

; Function Attrs: mustprogress uwtable
define void @_ZN4pugi12xml_document7_createEv(ptr noundef nonnull align 8 dereferenceable(208) %this) #2 align 2 {
entry:
  %this.addr = alloca ptr, align 8
  %page_offset = alloca i64, align 8
  %page = alloca ptr, align 8
  store ptr %this, ptr %this.addr, align 8
  %this1 = load ptr, ptr %this.addr, align 8
  store i64 0, ptr %page_offset, align 8
  %_memory = getelementptr inbounds %"class.pugi::xml_document", ptr %this1, i32 0, i32 2
  %arraydecay = getelementptr inbounds [192 x i8], ptr %_memory, i64 0, i64 0
  %call = call noundef ptr @_ZN4pugi4impl12_GLOBAL__N_115xml_memory_page9constructEPv(ptr noundef %arraydecay)
  store ptr %call, ptr %page, align 8
  %0 = load ptr, ptr %page, align 8
  %busy_size = getelementptr inbounds %"struct.pugi::impl::(anonymous namespace)::xml_memory_page", ptr %0, i32 0, i32 3
  store i64 32728, ptr %busy_size, align 8
  %1 = load ptr, ptr %page, align 8
  %add.ptr = getelementptr inbounds i8, ptr %1, i64 40
  %add.ptr2 = getelementptr inbounds i8, ptr %add.ptr, i64 0
  %2 = load ptr, ptr %page, align 8
  call void @_ZN4pugi4impl12_GLOBAL__N_119xml_document_structC2EPNS1_15xml_memory_pageE(ptr noundef nonnull align 8 dereferenceable(96) %add.ptr2, ptr noundef %2)
  %_root = getelementptr inbounds %"class.pugi::xml_node", ptr %this1, i32 0, i32 0
  store ptr %add.ptr2, ptr %_root, align 8
  %_root3 = getelementptr inbounds %"class.pugi::xml_node", ptr %this1, i32 0, i32 0
  %3 = load ptr, ptr %_root3, align 8
  %_root4 = getelementptr inbounds %"class.pugi::xml_node", ptr %this1, i32 0, i32 0
  %4 = load ptr, ptr %_root4, align 8
  %prev_sibling_c = getelementptr inbounds %"struct.pugi::xml_node_struct", ptr %4, i32 0, i32 5
  store ptr %3, ptr %prev_sibling_c, align 8
  %_root5 = getelementptr inbounds %"class.pugi::xml_node", ptr %this1, i32 0, i32 0
  %5 = load ptr, ptr %_root5, align 8
  %6 = icmp eq ptr %5, null
  br i1 %6, label %cast.end, label %cast.notnull

cast.notnull:                                     ; preds = %entry
  %add.ptr6 = getelementptr inbounds i8, ptr %5, i64 64
  br label %cast.end

cast.end:                                         ; preds = %cast.notnull, %entry
  %cast.result = phi ptr [ %add.ptr6, %cast.notnull ], [ null, %entry ]
  %7 = load ptr, ptr %page, align 8
  %allocator = getelementptr inbounds %"struct.pugi::impl::(anonymous namespace)::xml_memory_page", ptr %7, i32 0, i32 0
  store ptr %cast.result, ptr %allocator, align 8
  ret void
}