; Function Attrs: mustprogress nofree norecurse nosync nounwind willreturn memory(argmem: write) uwtable
define void @_ZN4pugi12xml_document7_createEv(ptr noundef nonnull align 8 dereferenceable(208) %this) local_unnamed_addr #3 align 2 {
entry:
  %_memory = getelementptr inbounds i8, ptr %this, i64 16
  %0 = getelementptr inbounds i8, ptr %this, i64 24
  tail call void @llvm.memset.p0.i64(ptr noundef nonnull align 8 dereferenceable(40) %0, i8 0, i64 32, i1 false)
  %busy_size = getelementptr inbounds i8, ptr %this, i64 40
  store i64 32728, ptr %busy_size, align 8
  %add.ptr = getelementptr inbounds i8, ptr %this, i64 56
  %name.i.i = getelementptr inbounds i8, ptr %this, i64 64
  tail call void @llvm.memset.p0.i64(ptr noundef nonnull align 8 dereferenceable(56) %name.i.i, i8 0, i64 56, i1 false)
  store i64 10241, ptr %add.ptr, align 8
  %1 = getelementptr inbounds i8, ptr %this, i64 120
  store ptr %_memory, ptr %1, align 8
  %_busy_size.i.i = getelementptr inbounds i8, ptr %this, i64 128
  store i64 32728, ptr %_busy_size.i.i, align 8
  %buffer.i = getelementptr inbounds i8, ptr %this, i64 136
  tail call void @llvm.memset.p0.i64(ptr noundef nonnull align 8 dereferenceable(16) %buffer.i, i8 0, i64 16, i1 false)
  store ptr %add.ptr, ptr %this, align 8
  %prev_sibling_c = getelementptr inbounds i8, ptr %this, i64 96
  store ptr %add.ptr, ptr %prev_sibling_c, align 8
  store ptr %1, ptr %_memory, align 8
  ret void
}